target datalayout = "e-m:e-p270:32:32-p271:32:32-p272:64:64-i64:64-i128:128-f80:128-n8:16:32:64-S128"
target triple = "x86_64-pc-linux-gnu"

%struct.VP8LMultipliers = type { i8, i8, i8 }

; Function Attrs: inlinehint nounwind uwtable
define internal i32 @ColorTransformDelta(i8 noundef signext %0, i8 noundef signext %1) #2 {
  %3 = alloca i8, align 1
  %4 = alloca i8, align 1
  store i8 %0, ptr %3, align 1, !tbaa !13
  store i8 %1, ptr %4, align 1, !tbaa !13
  %5 = load i8, ptr %3, align 1, !tbaa !13
  %6 = sext i8 %5 to i32
  %7 = load i8, ptr %4, align 1, !tbaa !13
  %8 = sext i8 %7 to i32
  %9 = mul nsw i32 %6, %8
  %10 = ashr i32 %9, 5
  ret i32 %10
}

; Function Attrs: nounwind uwtable
define hidden void @VP8LTransformColorInverse_C(ptr noundef %0, ptr noundef %1, i32 noundef %2, ptr noundef %3) #0 {
  %5 = alloca ptr, align 8
  %6 = alloca ptr, align 8
  %7 = alloca i32, align 4
  %8 = alloca ptr, align 8
  %9 = alloca i32, align 4
  %10 = alloca i32, align 4
  %11 = alloca i8, align 1
  %12 = alloca i32, align 4
  %13 = alloca i32, align 4
  %14 = alloca i32, align 4
  store ptr %0, ptr %5, align 8, !tbaa !12
  store ptr %1, ptr %6, align 8, !tbaa !3
  store i32 %2, ptr %7, align 4, !tbaa !8
  store ptr %3, ptr %8, align 8, !tbaa !3
  call void @llvm.lifetime.start.p0(i64 4, ptr %9) #8
  store i32 0, ptr %9, align 4, !tbaa !8
  br label %15

15:                                               ; preds = %71, %4
  %16 = load i32, ptr %9, align 4, !tbaa !8
  %17 = load i32, ptr %7, align 4, !tbaa !8
  %18 = icmp slt i32 %16, %17
  br i1 %18, label %19, label %74

19:                                               ; preds = %15
  call void @llvm.lifetime.start.p0(i64 4, ptr %10) #8
  %20 = load ptr, ptr %6, align 8, !tbaa !3
  %21 = load i32, ptr %9, align 4, !tbaa !8
  %22 = sext i32 %21 to i64
  %23 = getelementptr inbounds i32, ptr %20, i64 %22
  %24 = load i32, ptr %23, align 4, !tbaa !8
  store i32 %24, ptr %10, align 4, !tbaa !8
  call void @llvm.lifetime.start.p0(i64 1, ptr %11) #8
  %25 = load i32, ptr %10, align 4, !tbaa !8
  %26 = lshr i32 %25, 8
  %27 = trunc i32 %26 to i8
  store i8 %27, ptr %11, align 1, !tbaa !13
  call void @llvm.lifetime.start.p0(i64 4, ptr %12) #8
  %28 = load i32, ptr %10, align 4, !tbaa !8
  %29 = lshr i32 %28, 16
  store i32 %29, ptr %12, align 4, !tbaa !8
  call void @llvm.lifetime.start.p0(i64 4, ptr %13) #8
  %30 = load i32, ptr %12, align 4, !tbaa !8
  %31 = and i32 %30, 255
  store i32 %31, ptr %13, align 4, !tbaa !8
  call void @llvm.lifetime.start.p0(i64 4, ptr %14) #8
  %32 = load i32, ptr %10, align 4, !tbaa !8
  %33 = and i32 %32, 255
  store i32 %33, ptr %14, align 4, !tbaa !8
  %34 = load ptr, ptr %5, align 8, !tbaa !12
  %35 = getelementptr inbounds nuw %struct.VP8LMultipliers, ptr %34, i32 0, i32 0
  %36 = load i8, ptr %35, align 1, !tbaa !14
  %37 = load i8, ptr %11, align 1, !tbaa !13
  %38 = call i32 @ColorTransformDelta(i8 noundef signext %36, i8 noundef signext %37)
  %39 = load i32, ptr %13, align 4, !tbaa !8
  %40 = add nsw i32 %39, %38
  store i32 %40, ptr %13, align 4, !tbaa !8
  %41 = load i32, ptr %13, align 4, !tbaa !8
  %42 = and i32 %41, 255
  store i32 %42, ptr %13, align 4, !tbaa !8
  %43 = load ptr, ptr %5, align 8, !tbaa !12
  %44 = getelementptr inbounds nuw %struct.VP8LMultipliers, ptr %43, i32 0, i32 1
  %45 = load i8, ptr %44, align 1, !tbaa !16
  %46 = load i8, ptr %11, align 1, !tbaa !13
  %47 = call i32 @ColorTransformDelta(i8 noundef signext %45, i8 noundef signext %46)
  %48 = load i32, ptr %14, align 4, !tbaa !8
  %49 = add nsw i32 %48, %47
  store i32 %49, ptr %14, align 4, !tbaa !8
  %50 = load ptr, ptr %5, align 8, !tbaa !12
  %51 = getelementptr inbounds nuw %struct.VP8LMultipliers, ptr %50, i32 0, i32 2
  %52 = load i8, ptr %51, align 1, !tbaa !17
  %53 = load i32, ptr %13, align 4, !tbaa !8
  %54 = trunc i32 %53 to i8
  %55 = call i32 @ColorTransformDelta(i8 noundef signext %52, i8 noundef signext %54)
  %56 = load i32, ptr %14, align 4, !tbaa !8
  %57 = add nsw i32 %56, %55
  store i32 %57, ptr %14, align 4, !tbaa !8
  %58 = load i32, ptr %14, align 4, !tbaa !8
  %59 = and i32 %58, 255
  store i32 %59, ptr %14, align 4, !tbaa !8
  %60 = load i32, ptr %10, align 4, !tbaa !8
  %61 = and i32 %60, -16711936
  %62 = load i32, ptr %13, align 4, !tbaa !8
  %63 = shl i32 %62, 16
  %64 = or i32 %61, %63
  %65 = load i32, ptr %14, align 4, !tbaa !8
  %66 = or i32 %64, %65
  %67 = load ptr, ptr %8, align 8, !tbaa !3
  %68 = load i32, ptr %9, align 4, !tbaa !8
  %69 = sext i32 %68 to i64
  %70 = getelementptr inbounds i32, ptr %67, i64 %69
  store i32 %66, ptr %70, align 4, !tbaa !8
  call void @llvm.lifetime.end.p0(i64 4, ptr %14) #8
  call void @llvm.lifetime.end.p0(i64 4, ptr %13) #8
  call void @llvm.lifetime.end.p0(i64 4, ptr %12) #8
  call void @llvm.lifetime.end.p0(i64 1, ptr %11) #8
  call void @llvm.lifetime.end.p0(i64 4, ptr %10) #8
  br label %71

71:                                               ; preds = %19
  %72 = load i32, ptr %9, align 4, !tbaa !8
  %73 = add nsw i32 %72, 1
  store i32 %73, ptr %9, align 4, !tbaa !8
  br label %15, !llvm.loop !18

74:                                               ; preds = %15
  call void @llvm.lifetime.end.p0(i64 4, ptr %9) #8
  ret void
}