; Function Attrs: nofree norecurse nosync nounwind memory(argmem: readwrite) uwtable
define hidden void @VP8LTransformColorInverse_C(ptr noundef readonly captures(none) %0, ptr noundef readonly captures(none) %1, i32 noundef %2, ptr noundef writeonly captures(none) %3) #2 {
  %5 = icmp sgt i32 %2, 0
  br i1 %5, label %.lr.ph, label %._crit_edge

.lr.ph:                                           ; preds = %4
  %6 = load i8, ptr %0, align 1, !tbaa !9
  %7 = sext i8 %6 to i32
  %8 = getelementptr inbounds nuw i8, ptr %0, i64 1
  %9 = load i8, ptr %8, align 1, !tbaa !11
  %10 = sext i8 %9 to i32
  %11 = getelementptr inbounds nuw i8, ptr %0, i64 2
  %12 = load i8, ptr %11, align 1, !tbaa !12
  %13 = sext i8 %12 to i32
  %wide.trip.count = zext nneg i32 %2 to i64
  br label %14

14:                                               ; preds = %.lr.ph, %14
  %indvars.iv = phi i64 [ 0, %.lr.ph ], [ %indvars.iv.next, %14 ]
  %15 = getelementptr inbounds nuw i32, ptr %1, i64 %indvars.iv
  %16 = load i32, ptr %15, align 4, !tbaa !3
  %17 = lshr i32 %16, 16
  %18 = shl i32 %16, 16
  %19 = ashr i32 %18, 24
  %20 = mul nsw i32 %19, %7
  %21 = ashr i32 %20, 5
  %22 = add nsw i32 %21, %17
  %23 = mul nsw i32 %19, %10
  %24 = lshr i32 %23, 5
  %25 = add i32 %24, %16
  %sext = shl i32 %22, 24
  %26 = ashr exact i32 %sext, 24
  %27 = mul nsw i32 %26, %13
  %28 = lshr i32 %27, 5
  %29 = add i32 %25, %28
  %30 = and i32 %29, 255
  %31 = and i32 %16, -16711936
  %32 = shl i32 %22, 16
  %33 = and i32 %32, 16711680
  %34 = or disjoint i32 %33, %31
  %35 = or disjoint i32 %34, %30
  %36 = getelementptr inbounds nuw i32, ptr %3, i64 %indvars.iv
  store i32 %35, ptr %36, align 4, !tbaa !3
  %indvars.iv.next = add nuw nsw i64 %indvars.iv, 1
  %exitcond.not = icmp eq i64 %indvars.iv.next, %wide.trip.count
  br i1 %exitcond.not, label %._crit_edge, label %14, !llvm.loop !13

._crit_edge:                                      ; preds = %14, %4
  ret void
}